; Function Attrs: mustprogress nofree nounwind willreturn memory(read, argmem: readwrite, inaccessiblemem: none) uwtable
define dso_local void @_ZN4Json9OurReader7skipBomEb(ptr nocapture noundef nonnull align 8 dereferenceable(297) %0, i1 noundef zeroext %1) local_unnamed_addr #15 align 2 {
  br i1 %1, label %3, label %18

3:                                                ; preds = %2
  %4 = getelementptr inbounds i8, ptr %0, i64 200
  %5 = load ptr, ptr %4, align 8
  %6 = getelementptr inbounds i8, ptr %0, i64 192
  %7 = load ptr, ptr %6, align 8
  %8 = ptrtoint ptr %5 to i64
  %9 = ptrtoint ptr %7 to i64
  %10 = sub i64 %8, %9
  %11 = icmp sgt i64 %10, 2
  br i1 %11, label %12, label %18

12:                                               ; preds = %3
  %13 = tail call i32 @strncmp(ptr noundef nonnull dereferenceable(1) %7, ptr noundef nonnull dereferenceable(4) @.str.27, i64 noundef 3) #29
  %14 = icmp eq i32 %13, 0
  br i1 %14, label %15, label %18

15:                                               ; preds = %12
  %16 = getelementptr inbounds i8, ptr %7, i64 3
  store ptr %16, ptr %6, align 8
  %17 = getelementptr inbounds i8, ptr %0, i64 208
  store ptr %16, ptr %17, align 8
  br label %18

18:                                               ; preds = %3, %12, %15, %2
  ret void
}